target datalayout = "e-m:e-p270:32:32-p271:32:32-p272:64:64-i64:64-i128:128-f80:128-n8:16:32:64-S128"
target triple = "x86_64-pc-linux-gnu"

%struct.cpu_params = type { i32, [512 x i8], i8, i32, i8, i32 }
%struct.ggml_threadpool_params = type { [512 x i8], i32, i32, i32, i8, i8 }

; Function Attrs: mustprogress uwtable
define void @_Z38ggml_threadpool_params_from_cpu_paramsRK10cpu_params(ptr dead_on_unwind noalias writable sret(%struct.ggml_threadpool_params) align 4 %0, ptr noundef nonnull align 4 dereferenceable(532) %1) #4 {
  %3 = alloca ptr, align 8
  store ptr %1, ptr %3, align 8, !tbaa !29
  %4 = load ptr, ptr %3, align 8, !tbaa !29
  %5 = getelementptr inbounds nuw %struct.cpu_params, ptr %4, i32 0, i32 0
  %6 = load i32, ptr %5, align 4, !tbaa !31
  call void @ggml_threadpool_params_init(ptr noundef %0, i32 noundef %6)
  %7 = load ptr, ptr %3, align 8, !tbaa !29
  %8 = getelementptr inbounds nuw %struct.cpu_params, ptr %7, i32 0, i32 2
  %9 = load i8, ptr %8, align 4, !tbaa !366, !range !37, !noundef !38
  %10 = trunc i8 %9 to i1
  br i1 %10, label %11, label %15

11:                                               ; preds = %2
  %12 = getelementptr inbounds nuw %struct.ggml_threadpool_params, ptr %0, i32 0, i32 0
  %13 = load ptr, ptr %3, align 8, !tbaa !29
  %14 = getelementptr inbounds nuw %struct.cpu_params, ptr %13, i32 0, i32 1
  call void @llvm.memcpy.p0.p0.i64(ptr align 4 %12, ptr align 4 %14, i64 512, i1 false)
  br label %15

15:                                               ; preds = %11, %2
  %16 = load ptr, ptr %3, align 8, !tbaa !29
  %17 = getelementptr inbounds nuw %struct.cpu_params, ptr %16, i32 0, i32 3
  %18 = load i32, ptr %17, align 4, !tbaa !367
  %19 = getelementptr inbounds nuw %struct.ggml_threadpool_params, ptr %0, i32 0, i32 2
  store i32 %18, ptr %19, align 4, !tbaa !368
  %20 = load ptr, ptr %3, align 8, !tbaa !29
  %21 = getelementptr inbounds nuw %struct.cpu_params, ptr %20, i32 0, i32 5
  %22 = load i32, ptr %21, align 4, !tbaa !370
  %23 = getelementptr inbounds nuw %struct.ggml_threadpool_params, ptr %0, i32 0, i32 3
  store i32 %22, ptr %23, align 4, !tbaa !371
  %24 = load ptr, ptr %3, align 8, !tbaa !29
  %25 = getelementptr inbounds nuw %struct.cpu_params, ptr %24, i32 0, i32 4
  %26 = load i8, ptr %25, align 4, !tbaa !372, !range !37, !noundef !38
  %27 = trunc i8 %26 to i1
  %28 = getelementptr inbounds nuw %struct.ggml_threadpool_params, ptr %0, i32 0, i32 4
  %29 = zext i1 %27 to i8
  store i8 %29, ptr %28, align 4, !tbaa !373
  ret void
}