; Function Attrs: mustprogress uwtable
define void @_Z38ggml_threadpool_params_from_cpu_paramsRK10cpu_params(ptr dead_on_unwind noalias writable sret(%struct.ggml_threadpool_params) align 4 %0, ptr noundef nonnull readonly align 4 captures(none) dereferenceable(532) %1) local_unnamed_addr #3 {
  %3 = load i32, ptr %1, align 4, !tbaa !73
  tail call void @ggml_threadpool_params_init(ptr noundef %0, i32 noundef %3)
  %4 = getelementptr inbounds nuw i8, ptr %1, i64 516
  %5 = load i8, ptr %4, align 4, !tbaa !454, !range !79, !noundef !80
  %6 = trunc nuw i8 %5 to i1
  br i1 %6, label %7, label %9

7:                                                ; preds = %2
  %8 = getelementptr inbounds nuw i8, ptr %1, i64 4
  tail call void @llvm.memcpy.p0.p0.i64(ptr noundef nonnull align 4 dereferenceable(512) %0, ptr noundef nonnull align 4 dereferenceable(512) %8, i64 512, i1 false)
  br label %9

9:                                                ; preds = %7, %2
  %10 = getelementptr inbounds nuw i8, ptr %1, i64 520
  %11 = load i32, ptr %10, align 4, !tbaa !455
  %12 = getelementptr inbounds nuw i8, ptr %0, i64 516
  store i32 %11, ptr %12, align 4, !tbaa !456
  %13 = getelementptr inbounds nuw i8, ptr %1, i64 528
  %14 = load i32, ptr %13, align 4, !tbaa !458
  %15 = getelementptr inbounds nuw i8, ptr %0, i64 520
  store i32 %14, ptr %15, align 4, !tbaa !459
  %16 = getelementptr inbounds nuw i8, ptr %1, i64 524
  %17 = load i8, ptr %16, align 4, !tbaa !460, !range !79, !noundef !80
  %18 = getelementptr inbounds nuw i8, ptr %0, i64 524
  store i8 %17, ptr %18, align 4, !tbaa !461
  ret void
}